target datalayout = "e-m:e-p270:32:32-p271:32:32-p272:64:64-i64:64-i128:128-f80:128-n8:16:32:64-S128"
target triple = "x86_64-pc-linux-gnu"

%struct.FunctionCallInfoBaseData = type { ptr, ptr, ptr, i32, i8, i16, [0 x %struct.NullableDatum] }
%struct.NullableDatum = type { i64, i8 }
%struct.FmgrInfo = type { ptr, i32, i16, i8, i8, i8, ptr, ptr, ptr }
%struct.ArrayType = type { i32, i32, i32, i32 }
%struct.TypeCacheEntry = type { i32, i32, i16, i8, i8, i8, i8, i32, i32, i32, i32, i32, i32, i32, i32, i32, i32, i32, i32, i32, i32, %struct.FmgrInfo, %struct.FmgrInfo, %struct.FmgrInfo, %struct.FmgrInfo, ptr, i64, ptr, i32, i32, %struct.FmgrInfo, %struct.FmgrInfo, %struct.FmgrInfo, ptr, i32, i32, ptr, i32, ptr, ptr }

; Function Attrs: nounwind uwtable
define internal ptr @array_reverse_n(ptr noundef %0, i32 noundef %1, ptr noundef %2) #0 {
  %4 = alloca ptr, align 8
  %5 = alloca i32, align 4
  %6 = alloca ptr, align 8
  %7 = alloca ptr, align 8
  %8 = alloca i32, align 4
  %9 = alloca ptr, align 8
  %10 = alloca ptr, align 8
  %11 = alloca i32, align 4
  %12 = alloca i32, align 4
  %13 = alloca [6 x i32], align 16
  %14 = alloca [6 x i32], align 16
  %15 = alloca i16, align 2
  %16 = alloca i8, align 1
  %17 = alloca i8, align 1
  %18 = alloca ptr, align 8
  %19 = alloca ptr, align 8
  %20 = alloca ptr, align 8
  %21 = alloca ptr, align 8
  %22 = alloca i32, align 4
  %23 = alloca i32, align 4
  %24 = alloca i32, align 4
  %25 = alloca ptr, align 8
  %26 = alloca ptr, align 8
  %27 = alloca i32, align 4
  %28 = alloca i64, align 8
  %29 = alloca i8, align 1
  store ptr %0, ptr %4, align 8
  store i32 %1, ptr %5, align 4
  store ptr %2, ptr %6, align 8
  call void @llvm.lifetime.start.p0(i64 8, ptr %7) #7
  call void @llvm.lifetime.start.p0(i64 4, ptr %8) #7
  call void @llvm.lifetime.start.p0(i64 8, ptr %9) #7
  call void @llvm.lifetime.start.p0(i64 8, ptr %10) #7
  call void @llvm.lifetime.start.p0(i64 4, ptr %11) #7
  call void @llvm.lifetime.start.p0(i64 4, ptr %12) #7
  call void @llvm.lifetime.start.p0(i64 24, ptr %13) #7
  call void @llvm.lifetime.start.p0(i64 24, ptr %14) #7
  call void @llvm.lifetime.start.p0(i64 2, ptr %15) #7
  call void @llvm.lifetime.start.p0(i64 1, ptr %16) #7
  call void @llvm.lifetime.start.p0(i64 1, ptr %17) #7
  call void @llvm.lifetime.start.p0(i64 8, ptr %18) #7
  call void @llvm.lifetime.start.p0(i64 8, ptr %19) #7
  call void @llvm.lifetime.start.p0(i64 8, ptr %20) #7
  call void @llvm.lifetime.start.p0(i64 8, ptr %21) #7
  %30 = load ptr, ptr %4, align 8
  %31 = getelementptr inbounds nuw %struct.ArrayType, ptr %30, i32 0, i32 1
  %32 = load i32, ptr %31, align 4
  store i32 %32, ptr %8, align 4
  %33 = load ptr, ptr %4, align 8
  %34 = getelementptr inbounds nuw i8, ptr %33, i64 16
  store ptr %34, ptr %9, align 8
  %35 = load ptr, ptr %4, align 8
  %36 = getelementptr inbounds nuw i8, ptr %35, i64 16
  %37 = load ptr, ptr %4, align 8
  %38 = getelementptr inbounds nuw %struct.ArrayType, ptr %37, i32 0, i32 1
  %39 = load i32, ptr %38, align 4
  %40 = sext i32 %39 to i64
  %41 = mul i64 4, %40
  %42 = getelementptr inbounds nuw i8, ptr %36, i64 %41
  store ptr %42, ptr %10, align 8
  %43 = load ptr, ptr %6, align 8
  %44 = getelementptr inbounds nuw %struct.TypeCacheEntry, ptr %43, i32 0, i32 2
  %45 = load i16, ptr %44, align 8
  store i16 %45, ptr %15, align 2
  %46 = load ptr, ptr %6, align 8
  %47 = getelementptr inbounds nuw %struct.TypeCacheEntry, ptr %46, i32 0, i32 3
  %48 = load i8, ptr %47, align 2, !range !4, !noundef !5
  %49 = trunc i8 %48 to i1
  %50 = zext i1 %49 to i8
  store i8 %50, ptr %16, align 1
  %51 = load ptr, ptr %6, align 8
  %52 = getelementptr inbounds nuw %struct.TypeCacheEntry, ptr %51, i32 0, i32 4
  %53 = load i8, ptr %52, align 1
  store i8 %53, ptr %17, align 1
  %54 = load ptr, ptr %4, align 8
  %55 = load i32, ptr %5, align 4
  %56 = load i16, ptr %15, align 2
  %57 = sext i16 %56 to i32
  %58 = load i8, ptr %16, align 1, !range !4, !noundef !5
  %59 = trunc i8 %58 to i1
  %60 = load i8, ptr %17, align 1
  call void @deconstruct_array(ptr noundef %54, i32 noundef %55, i32 noundef %57, i1 noundef zeroext %59, i8 noundef signext %60, ptr noundef %18, ptr noundef %20, ptr noundef %11)
  %61 = load ptr, ptr %9, align 8
  %62 = getelementptr inbounds i32, ptr %61, i64 0
  %63 = load i32, ptr %62, align 4
  store i32 %63, ptr %12, align 4
  %64 = load i32, ptr %12, align 4
  %65 = load i32, ptr %11, align 4
  %66 = sdiv i32 %65, %64
  store i32 %66, ptr %11, align 4
  %67 = load ptr, ptr %18, align 8
  store ptr %67, ptr %19, align 8
  %68 = load ptr, ptr %20, align 8
  store ptr %68, ptr %21, align 8
  call void @llvm.lifetime.start.p0(i64 4, ptr %22) #7
  store i32 0, ptr %22, align 4
  br label %69

69:                                               ; preds = %124, %3
  %70 = load i32, ptr %22, align 4
  %71 = load i32, ptr %12, align 4
  %72 = sdiv i32 %71, 2
  %73 = icmp slt i32 %70, %72
  br i1 %73, label %75, label %74

74:                                               ; preds = %69
  store i32 2, ptr %23, align 4
  call void @llvm.lifetime.end.p0(i64 4, ptr %22) #7
  br label %127

75:                                               ; preds = %69
  call void @llvm.lifetime.start.p0(i64 4, ptr %24) #7
  %76 = load i32, ptr %12, align 4
  %77 = load i32, ptr %22, align 4
  %78 = sub i32 %76, %77
  %79 = sub i32 %78, 1
  %80 = load i32, ptr %11, align 4
  %81 = mul i32 %79, %80
  store i32 %81, ptr %24, align 4
  call void @llvm.lifetime.start.p0(i64 8, ptr %25) #7
  %82 = load ptr, ptr %18, align 8
  %83 = load i32, ptr %24, align 4
  %84 = sext i32 %83 to i64
  %85 = getelementptr inbounds i64, ptr %82, i64 %84
  store ptr %85, ptr %25, align 8
  call void @llvm.lifetime.start.p0(i64 8, ptr %26) #7
  %86 = load ptr, ptr %20, align 8
  %87 = load i32, ptr %24, align 4
  %88 = sext i32 %87 to i64
  %89 = getelementptr inbounds i8, ptr %86, i64 %88
  store ptr %89, ptr %26, align 8
  call void @llvm.lifetime.start.p0(i64 4, ptr %27) #7
  store i32 0, ptr %27, align 4
  br label %90

90:                                               ; preds = %120, %75
  %91 = load i32, ptr %27, align 4
  %92 = load i32, ptr %11, align 4
  %93 = icmp slt i32 %91, %92
  br i1 %93, label %95, label %94

94:                                               ; preds = %90
  store i32 5, ptr %23, align 4
  call void @llvm.lifetime.end.p0(i64 4, ptr %27) #7
  br label %123

95:                                               ; preds = %90
  call void @llvm.lifetime.start.p0(i64 8, ptr %28) #7
  %96 = load ptr, ptr %19, align 8
  %97 = load i64, ptr %96, align 8
  store i64 %97, ptr %28, align 8
  call void @llvm.lifetime.start.p0(i64 1, ptr %29) #7
  %98 = load ptr, ptr %21, align 8
  %99 = load i8, ptr %98, align 1, !range !4, !noundef !5
  %100 = trunc i8 %99 to i1
  %101 = zext i1 %100 to i8
  store i8 %101, ptr %29, align 1
  %102 = load ptr, ptr %25, align 8
  %103 = load i64, ptr %102, align 8
  %104 = load ptr, ptr %19, align 8
  %105 = getelementptr inbounds nuw i64, ptr %104, i32 1
  store ptr %105, ptr %19, align 8
  store i64 %103, ptr %104, align 8
  %106 = load ptr, ptr %26, align 8
  %107 = load i8, ptr %106, align 1, !range !4, !noundef !5
  %108 = trunc i8 %107 to i1
  %109 = load ptr, ptr %21, align 8
  %110 = getelementptr inbounds nuw i8, ptr %109, i32 1
  store ptr %110, ptr %21, align 8
  %111 = zext i1 %108 to i8
  store i8 %111, ptr %109, align 1
  %112 = load i64, ptr %28, align 8
  %113 = load ptr, ptr %25, align 8
  %114 = getelementptr inbounds nuw i64, ptr %113, i32 1
  store ptr %114, ptr %25, align 8
  store i64 %112, ptr %113, align 8
  %115 = load i8, ptr %29, align 1, !range !4, !noundef !5
  %116 = trunc i8 %115 to i1
  %117 = load ptr, ptr %26, align 8
  %118 = getelementptr inbounds nuw i8, ptr %117, i32 1
  store ptr %118, ptr %26, align 8
  %119 = zext i1 %116 to i8
  store i8 %119, ptr %117, align 1
  call void @llvm.lifetime.end.p0(i64 1, ptr %29) #7
  call void @llvm.lifetime.end.p0(i64 8, ptr %28) #7
  br label %120

120:                                              ; preds = %95
  %121 = load i32, ptr %27, align 4
  %122 = add i32 %121, 1
  store i32 %122, ptr %27, align 4
  br label %90, !llvm.loop !20

123:                                              ; preds = %94
  call void @llvm.lifetime.end.p0(i64 8, ptr %26) #7
  call void @llvm.lifetime.end.p0(i64 8, ptr %25) #7
  call void @llvm.lifetime.end.p0(i64 4, ptr %24) #7
  br label %124

124:                                              ; preds = %123
  %125 = load i32, ptr %22, align 4
  %126 = add i32 %125, 1
  store i32 %126, ptr %22, align 4
  br label %69, !llvm.loop !21

127:                                              ; preds = %74
  %128 = getelementptr inbounds [6 x i32], ptr %13, i64 0, i64 0
  %129 = load ptr, ptr %9, align 8
  %130 = load i32, ptr %8, align 4
  %131 = sext i32 %130 to i64
  %132 = mul i64 %131, 4
  call void @llvm.memcpy.p0.p0.i64(ptr align 16 %128, ptr align 4 %129, i64 %132, i1 false)
  %133 = getelementptr inbounds [6 x i32], ptr %14, i64 0, i64 0
  %134 = load ptr, ptr %10, align 8
  %135 = load i32, ptr %8, align 4
  %136 = sext i32 %135 to i64
  %137 = mul i64 %136, 4
  call void @llvm.memcpy.p0.p0.i64(ptr align 16 %133, ptr align 4 %134, i64 %137, i1 false)
  %138 = load i32, ptr %12, align 4
  %139 = getelementptr inbounds [6 x i32], ptr %13, i64 0, i64 0
  store i32 %138, ptr %139, align 16
  %140 = load ptr, ptr %18, align 8
  %141 = load ptr, ptr %20, align 8
  %142 = load i32, ptr %8, align 4
  %143 = getelementptr inbounds [6 x i32], ptr %13, i64 0, i64 0
  %144 = getelementptr inbounds [6 x i32], ptr %14, i64 0, i64 0
  %145 = load i32, ptr %5, align 4
  %146 = load i16, ptr %15, align 2
  %147 = sext i16 %146 to i32
  %148 = load i8, ptr %16, align 1, !range !4, !noundef !5
  %149 = trunc i8 %148 to i1
  %150 = load i8, ptr %17, align 1
  %151 = call ptr @construct_md_array(ptr noundef %140, ptr noundef %141, i32 noundef %142, ptr noundef %143, ptr noundef %144, i32 noundef %145, i32 noundef %147, i1 noundef zeroext %149, i8 noundef signext %150)
  store ptr %151, ptr %7, align 8
  %152 = load ptr, ptr %18, align 8
  call void @pfree(ptr noundef %152)
  %153 = load ptr, ptr %20, align 8
  call void @pfree(ptr noundef %153)
  %154 = load ptr, ptr %7, align 8
  store i32 1, ptr %23, align 4
  call void @llvm.lifetime.end.p0(i64 8, ptr %21) #7
  call void @llvm.lifetime.end.p0(i64 8, ptr %20) #7
  call void @llvm.lifetime.end.p0(i64 8, ptr %19) #7
  call void @llvm.lifetime.end.p0(i64 8, ptr %18) #7
  call void @llvm.lifetime.end.p0(i64 1, ptr %17) #7
  call void @llvm.lifetime.end.p0(i64 1, ptr %16) #7
  call void @llvm.lifetime.end.p0(i64 2, ptr %15) #7
  call void @llvm.lifetime.end.p0(i64 24, ptr %14) #7
  call void @llvm.lifetime.end.p0(i64 24, ptr %13) #7
  call void @llvm.lifetime.end.p0(i64 4, ptr %12) #7
  call void @llvm.lifetime.end.p0(i64 4, ptr %11) #7
  call void @llvm.lifetime.end.p0(i64 8, ptr %10) #7
  call void @llvm.lifetime.end.p0(i64 8, ptr %9) #7
  call void @llvm.lifetime.end.p0(i64 4, ptr %8) #7
  call void @llvm.lifetime.end.p0(i64 8, ptr %7) #7
  ret ptr %154
}

; Function Attrs: inlinehint nounwind uwtable
define internal i64 @PointerGetDatum(ptr noundef %0) #2 {
  %2 = alloca ptr, align 8
  store ptr %0, ptr %2, align 8
  %3 = load ptr, ptr %2, align 8
  %4 = ptrtoint ptr %3 to i64
  ret i64 %4
}

; Function Attrs: inlinehint nounwind uwtable
define internal ptr @DatumGetPointer(i64 noundef %0) #2 {
  %2 = alloca i64, align 8
  store i64 %0, ptr %2, align 8
  %3 = load i64, ptr %2, align 8
  %4 = inttoptr i64 %3 to ptr
  ret ptr %4
}

; Function Attrs: nounwind uwtable
define dso_local i64 @array_reverse(ptr noundef %0) #0 {
  %2 = alloca i64, align 8
  %3 = alloca ptr, align 8
  %4 = alloca ptr, align 8
  %5 = alloca ptr, align 8
  %6 = alloca i32, align 4
  %7 = alloca ptr, align 8
  %8 = alloca i32, align 4
  store ptr %0, ptr %3, align 8
  call void @llvm.lifetime.start.p0(i64 8, ptr %4) #7
  %9 = load ptr, ptr %3, align 8
  %10 = getelementptr inbounds nuw %struct.FunctionCallInfoBaseData, ptr %9, i32 0, i32 6
  %11 = getelementptr inbounds [0 x %struct.NullableDatum], ptr %10, i64 0, i64 0
  %12 = getelementptr inbounds nuw %struct.NullableDatum, ptr %11, i32 0, i32 0
  %13 = load i64, ptr %12, align 8
  %14 = call ptr @DatumGetPointer(i64 noundef %13)
  %15 = call ptr @pg_detoast_datum(ptr noundef %14)
  store ptr %15, ptr %4, align 8
  call void @llvm.lifetime.start.p0(i64 8, ptr %5) #7
  call void @llvm.lifetime.start.p0(i64 4, ptr %6) #7
  call void @llvm.lifetime.start.p0(i64 8, ptr %7) #7
  %16 = load ptr, ptr %4, align 8
  %17 = getelementptr inbounds nuw %struct.ArrayType, ptr %16, i32 0, i32 1
  %18 = load i32, ptr %17, align 4
  %19 = icmp slt i32 %18, 1
  br i1 %19, label %26, label %20

20:                                               ; preds = %1
  %21 = load ptr, ptr %4, align 8
  %22 = getelementptr inbounds nuw i8, ptr %21, i64 16
  %23 = getelementptr inbounds i32, ptr %22, i64 0
  %24 = load i32, ptr %23, align 4
  %25 = icmp slt i32 %24, 2
  br i1 %25, label %26, label %29

26:                                               ; preds = %20, %1
  %27 = load ptr, ptr %4, align 8
  %28 = call i64 @PointerGetDatum(ptr noundef %27)
  store i64 %28, ptr %2, align 8
  store i32 1, ptr %8, align 4
  br label %61

29:                                               ; preds = %20
  %30 = load ptr, ptr %4, align 8
  %31 = getelementptr inbounds nuw %struct.ArrayType, ptr %30, i32 0, i32 3
  %32 = load i32, ptr %31, align 4
  store i32 %32, ptr %6, align 4
  %33 = load ptr, ptr %3, align 8
  %34 = getelementptr inbounds nuw %struct.FunctionCallInfoBaseData, ptr %33, i32 0, i32 0
  %35 = load ptr, ptr %34, align 8
  %36 = getelementptr inbounds nuw %struct.FmgrInfo, ptr %35, i32 0, i32 6
  %37 = load ptr, ptr %36, align 8
  store ptr %37, ptr %7, align 8
  %38 = load ptr, ptr %7, align 8
  %39 = icmp eq ptr %38, null
  br i1 %39, label %46, label %40

40:                                               ; preds = %29
  %41 = load ptr, ptr %7, align 8
  %42 = getelementptr inbounds nuw %struct.TypeCacheEntry, ptr %41, i32 0, i32 0
  %43 = load i32, ptr %42, align 8
  %44 = load i32, ptr %6, align 4
  %45 = icmp ne i32 %43, %44
  br i1 %45, label %46, label %54

46:                                               ; preds = %40, %29
  %47 = load i32, ptr %6, align 4
  %48 = call ptr @lookup_type_cache(i32 noundef %47, i32 noundef 0)
  store ptr %48, ptr %7, align 8
  %49 = load ptr, ptr %7, align 8
  %50 = load ptr, ptr %3, align 8
  %51 = getelementptr inbounds nuw %struct.FunctionCallInfoBaseData, ptr %50, i32 0, i32 0
  %52 = load ptr, ptr %51, align 8
  %53 = getelementptr inbounds nuw %struct.FmgrInfo, ptr %52, i32 0, i32 6
  store ptr %49, ptr %53, align 8
  br label %54

54:                                               ; preds = %46, %40
  %55 = load ptr, ptr %4, align 8
  %56 = load i32, ptr %6, align 4
  %57 = load ptr, ptr %7, align 8
  %58 = call ptr @array_reverse_n(ptr noundef %55, i32 noundef %56, ptr noundef %57)
  store ptr %58, ptr %5, align 8
  %59 = load ptr, ptr %5, align 8
  %60 = call i64 @PointerGetDatum(ptr noundef %59)
  store i64 %60, ptr %2, align 8
  store i32 1, ptr %8, align 4
  br label %61

61:                                               ; preds = %54, %26
  call void @llvm.lifetime.end.p0(i64 8, ptr %7) #7
  call void @llvm.lifetime.end.p0(i64 4, ptr %6) #7
  call void @llvm.lifetime.end.p0(i64 8, ptr %5) #7
  call void @llvm.lifetime.end.p0(i64 8, ptr %4) #7
  %62 = load i64, ptr %2, align 8
  ret i64 %62
}