; Function Attrs: nounwind uwtable
define dso_local i64 @array_reverse(ptr noundef readonly captures(none) %0) local_unnamed_addr #0 {
  %2 = alloca i32, align 4
  %3 = alloca [6 x i32], align 16
  %4 = alloca [6 x i32], align 16
  %5 = alloca ptr, align 8
  %6 = alloca ptr, align 8
  %7 = getelementptr inbounds nuw i8, ptr %0, i64 32
  %8 = load i64, ptr %7, align 8
  %9 = inttoptr i64 %8 to ptr
  %10 = tail call ptr @pg_detoast_datum(ptr noundef %9) #10
  %11 = getelementptr inbounds nuw i8, ptr %10, i64 4
  %12 = load i32, ptr %11, align 4
  %13 = icmp slt i32 %12, 1
  br i1 %13, label %78, label %14

14:                                               ; preds = %1
  %15 = getelementptr inbounds nuw i8, ptr %10, i64 16
  %16 = load i32, ptr %15, align 4
  %17 = icmp slt i32 %16, 2
  br i1 %17, label %78, label %18

18:                                               ; preds = %14
  %19 = getelementptr inbounds nuw i8, ptr %10, i64 12
  %20 = load i32, ptr %19, align 4
  %21 = load ptr, ptr %0, align 8
  %22 = getelementptr inbounds nuw i8, ptr %21, i64 24
  %23 = load ptr, ptr %22, align 8
  %24 = icmp eq ptr %23, null
  br i1 %24, label %27, label %25

25:                                               ; preds = %18
  %26 = load i32, ptr %23, align 8
  %.not = icmp eq i32 %26, %20
  br i1 %.not, label %31, label %27

27:                                               ; preds = %25, %18
  %28 = tail call ptr @lookup_type_cache(i32 noundef %20, i32 noundef 0) #10
  %29 = load ptr, ptr %0, align 8
  %30 = getelementptr inbounds nuw i8, ptr %29, i64 24
  store ptr %28, ptr %30, align 8
  %.pre = load i32, ptr %11, align 4
  br label %31

31:                                               ; preds = %27, %25
  %32 = phi i32 [ %.pre, %27 ], [ %12, %25 ]
  %.0 = phi ptr [ %28, %27 ], [ %23, %25 ]
  call void @llvm.lifetime.start.p0(i64 4, ptr nonnull %2) #10
  call void @llvm.lifetime.start.p0(i64 24, ptr nonnull %3) #10
  call void @llvm.lifetime.start.p0(i64 24, ptr nonnull %4) #10
  call void @llvm.lifetime.start.p0(i64 8, ptr nonnull %5) #10
  call void @llvm.lifetime.start.p0(i64 8, ptr nonnull %6) #10
  %33 = getelementptr inbounds nuw i8, ptr %.0, i64 8
  %34 = load i16, ptr %33, align 8
  %35 = getelementptr inbounds nuw i8, ptr %.0, i64 10
  %36 = load i8, ptr %35, align 2, !range !4, !noundef !5
  %37 = trunc nuw i8 %36 to i1
  %38 = getelementptr inbounds nuw i8, ptr %.0, i64 11
  %39 = load i8, ptr %38, align 1
  %40 = sext i16 %34 to i32
  call void @deconstruct_array(ptr noundef nonnull %10, i32 noundef %20, i32 noundef %40, i1 noundef zeroext %37, i8 noundef signext %39, ptr noundef nonnull %5, ptr noundef nonnull %6, ptr noundef nonnull %2) #10
  %41 = load i32, ptr %15, align 4
  %42 = load i32, ptr %2, align 4
  %43 = sdiv i32 %42, %41
  store i32 %43, ptr %2, align 4
  %44 = sdiv i32 %41, 2
  %45 = icmp sgt i32 %41, 1
  %.pre63.i = load ptr, ptr %5, align 8
  %.pre65.i = load ptr, ptr %6, align 8
  %46 = icmp sgt i32 %43, 0
  %or.cond.i = select i1 %45, i1 %46, i1 false
  br i1 %or.cond.i, label %.lr.ph59.split.i, label %array_reverse_n.exit

._crit_edge60.loopexit.i:                         ; preds = %._crit_edge.i
  %.pre.i = load ptr, ptr %5, align 8
  %.pre64.i = load ptr, ptr %6, align 8
  br label %array_reverse_n.exit

.lr.ph59.split.i:                                 ; preds = %31, %._crit_edge.i
  %47 = phi i32 [ %57, %._crit_edge.i ], [ %43, %31 ]
  %.057.i = phi ptr [ %.1.lcssa.i, %._crit_edge.i ], [ %.pre63.i, %31 ]
  %.04356.i = phi ptr [ %.144.lcssa.i, %._crit_edge.i ], [ %.pre65.i, %31 ]
  %.04855.i = phi i32 [ %58, %._crit_edge.i ], [ 0, %31 ]
  %48 = icmp sgt i32 %47, 0
  br i1 %48, label %.lr.ph.preheader.i, label %._crit_edge.i

.lr.ph.preheader.i:                               ; preds = %.lr.ph59.split.i
  %49 = load ptr, ptr %6, align 8
  %50 = xor i32 %.04855.i, -1
  %51 = add nsw i32 %41, %50
  %52 = mul i32 %51, %47
  %53 = sext i32 %52 to i64
  %54 = getelementptr inbounds i8, ptr %49, i64 %53
  %55 = load ptr, ptr %5, align 8
  %56 = getelementptr inbounds i64, ptr %55, i64 %53
  br label %.lr.ph.i

._crit_edge.i:                                    ; preds = %.lr.ph.i, %.lr.ph59.split.i
  %57 = phi i32 [ %47, %.lr.ph59.split.i ], [ %68, %.lr.ph.i ]
  %.144.lcssa.i = phi ptr [ %.04356.i, %.lr.ph59.split.i ], [ %64, %.lr.ph.i ]
  %.1.lcssa.i = phi ptr [ %.057.i, %.lr.ph59.split.i ], [ %62, %.lr.ph.i ]
  %58 = add nuw nsw i32 %.04855.i, 1
  %exitcond.not.i = icmp eq i32 %58, %44
  br i1 %exitcond.not.i, label %._crit_edge60.loopexit.i, label %.lr.ph59.split.i, !llvm.loop !59

.lr.ph.i:                                         ; preds = %.lr.ph.i, %.lr.ph.preheader.i
  %.153.i = phi ptr [ %62, %.lr.ph.i ], [ %.057.i, %.lr.ph.preheader.i ]
  %.14452.i = phi ptr [ %64, %.lr.ph.i ], [ %.04356.i, %.lr.ph.preheader.i ]
  %.04551.i = phi i32 [ %67, %.lr.ph.i ], [ 0, %.lr.ph.preheader.i ]
  %.04650.i = phi ptr [ %66, %.lr.ph.i ], [ %54, %.lr.ph.preheader.i ]
  %.04749.i = phi ptr [ %65, %.lr.ph.i ], [ %56, %.lr.ph.preheader.i ]
  %59 = load i64, ptr %.153.i, align 8
  %60 = load i8, ptr %.14452.i, align 1, !range !4, !noundef !5
  %61 = load i64, ptr %.04749.i, align 8
  %62 = getelementptr inbounds nuw i8, ptr %.153.i, i64 8
  store i64 %61, ptr %.153.i, align 8
  %63 = load i8, ptr %.04650.i, align 1, !range !4, !noundef !5
  %64 = getelementptr inbounds nuw i8, ptr %.14452.i, i64 1
  store i8 %63, ptr %.14452.i, align 1
  %65 = getelementptr inbounds nuw i8, ptr %.04749.i, i64 8
  store i64 %59, ptr %.04749.i, align 8
  %66 = getelementptr inbounds nuw i8, ptr %.04650.i, i64 1
  store i8 %60, ptr %.04650.i, align 1
  %67 = add nuw nsw i32 %.04551.i, 1
  %68 = load i32, ptr %2, align 4
  %69 = icmp slt i32 %67, %68
  br i1 %69, label %.lr.ph.i, label %._crit_edge.i, !llvm.loop !61

array_reverse_n.exit:                             ; preds = %31, %._crit_edge60.loopexit.i
  %70 = phi ptr [ %.pre64.i, %._crit_edge60.loopexit.i ], [ %.pre65.i, %31 ]
  %71 = phi ptr [ %.pre.i, %._crit_edge60.loopexit.i ], [ %.pre63.i, %31 ]
  %72 = sext i32 %32 to i64
  %73 = shl nsw i64 %72, 2
  %74 = getelementptr inbounds nuw i8, ptr %15, i64 %73
  call void @llvm.memcpy.p0.p0.i64(ptr nonnull align 16 %3, ptr nonnull align 4 %15, i64 %73, i1 false)
  call void @llvm.memcpy.p0.p0.i64(ptr nonnull align 16 %4, ptr nonnull align 4 %74, i64 %73, i1 false)
  store i32 %41, ptr %3, align 16
  %75 = call ptr @construct_md_array(ptr noundef %71, ptr noundef %70, i32 noundef %32, ptr noundef nonnull %3, ptr noundef nonnull %4, i32 noundef %20, i32 noundef %40, i1 noundef zeroext %37, i8 noundef signext %39) #10
  %76 = load ptr, ptr %5, align 8
  call void @pfree(ptr noundef %76) #10
  %77 = load ptr, ptr %6, align 8
  call void @pfree(ptr noundef %77) #10
  call void @llvm.lifetime.end.p0(i64 8, ptr nonnull %6) #10
  call void @llvm.lifetime.end.p0(i64 8, ptr nonnull %5) #10
  call void @llvm.lifetime.end.p0(i64 24, ptr nonnull %4) #10
  call void @llvm.lifetime.end.p0(i64 24, ptr nonnull %3) #10
  call void @llvm.lifetime.end.p0(i64 4, ptr nonnull %2) #10
  br label %78

78:                                               ; preds = %1, %14, %array_reverse_n.exit
  %.016.in = phi ptr [ %75, %array_reverse_n.exit ], [ %10, %14 ], [ %10, %1 ]
  %.016 = ptrtoint ptr %.016.in to i64
  ret i64 %.016
}